target datalayout = "e-m:e-p270:32:32-p271:32:32-p272:64:64-i64:64-i128:128-f80:128-n8:16:32:64-S128"
target triple = "x86_64-unknown-linux-gnu"

%"class.cvc5::internal::NodeBuilder" = type <{ %"class.cvc5::internal::expr::NodeValue", [10 x ptr], ptr, ptr, i32, [4 x i8] }>
%"class.cvc5::internal::expr::NodeValue" = type { i64, i16, i32, [0 x ptr] }

; Function Attrs: mustprogress nounwind uwtable
define linkonce_odr hidden noundef ptr @_ZNSt11__copy_moveILb0ELb1ESt26random_access_iterator_tagE8__copy_mIPN4cvc58internal4expr9NodeValueEEEPT_PKS8_SB_S9_(ptr noundef %__first, ptr noundef %__last, ptr noundef %__result) #5 comdat align 2 {
entry:
  %__first.addr = alloca ptr, align 8
  %__last.addr = alloca ptr, align 8
  %__result.addr = alloca ptr, align 8
  %_Num = alloca i64, align 8
  store ptr %__first, ptr %__first.addr, align 8
  store ptr %__last, ptr %__last.addr, align 8
  store ptr %__result, ptr %__result.addr, align 8
  %0 = load ptr, ptr %__last.addr, align 8
  %1 = load ptr, ptr %__first.addr, align 8
  %sub.ptr.lhs.cast = ptrtoint ptr %0 to i64
  %sub.ptr.rhs.cast = ptrtoint ptr %1 to i64
  %sub.ptr.sub = sub i64 %sub.ptr.lhs.cast, %sub.ptr.rhs.cast
  %sub.ptr.div = sdiv exact i64 %sub.ptr.sub, 8
  store i64 %sub.ptr.div, ptr %_Num, align 8
  %2 = load i64, ptr %_Num, align 8
  %tobool = icmp ne i64 %2, 0
  br i1 %tobool, label %if.then, label %if.end

if.then:                                          ; preds = %entry
  %3 = load ptr, ptr %__result.addr, align 8
  %4 = load ptr, ptr %__first.addr, align 8
  %5 = load i64, ptr %_Num, align 8
  %mul = mul i64 8, %5
  call void @llvm.memmove.p0.p0.i64(ptr align 8 %3, ptr align 8 %4, i64 %mul, i1 false)
  br label %if.end

if.end:                                           ; preds = %if.then, %entry
  %6 = load ptr, ptr %__result.addr, align 8
  %7 = load i64, ptr %_Num, align 8
  %add.ptr = getelementptr inbounds ptr, ptr %6, i64 %7
  ret ptr %add.ptr
}

; Function Attrs: mustprogress uwtable
define linkonce_odr noundef ptr @_ZSt14__copy_move_a2ILb0EPPN4cvc58internal4expr9NodeValueES5_ET1_T0_S7_S6_(ptr noundef %__first, ptr noundef %__last, ptr noundef %__result) #4 comdat {
entry:
  %__first.addr = alloca ptr, align 8
  %__last.addr = alloca ptr, align 8
  %__result.addr = alloca ptr, align 8
  store ptr %__first, ptr %__first.addr, align 8
  store ptr %__last, ptr %__last.addr, align 8
  store ptr %__result, ptr %__result.addr, align 8
  %0 = load ptr, ptr %__first.addr, align 8
  %1 = load ptr, ptr %__last.addr, align 8
  %2 = load ptr, ptr %__result.addr, align 8
  %call = call noundef ptr @_ZNSt11__copy_moveILb0ELb1ESt26random_access_iterator_tagE8__copy_mIPN4cvc58internal4expr9NodeValueEEEPT_PKS8_SB_S9_(ptr noundef %0, ptr noundef %1, ptr noundef %2)
  ret ptr %call
}

; Function Attrs: mustprogress nounwind uwtable
define linkonce_odr noundef ptr @_ZSt12__niter_wrapIPPN4cvc58internal4expr9NodeValueEET_RKS6_S6_(ptr noundef nonnull align 8 dereferenceable(8) %0, ptr noundef %__res) #5 comdat {
entry:
  %.addr = alloca ptr, align 8
  %__res.addr = alloca ptr, align 8
  store ptr %0, ptr %.addr, align 8
  store ptr %__res, ptr %__res.addr, align 8
  %1 = load ptr, ptr %__res.addr, align 8
  ret ptr %1
}

; Function Attrs: mustprogress uwtable
define linkonce_odr noundef ptr @_ZSt14__copy_move_a1ILb0EPPN4cvc58internal4expr9NodeValueES5_ET1_T0_S7_S6_(ptr noundef %__first, ptr noundef %__last, ptr noundef %__result) #4 comdat {
entry:
  %__first.addr = alloca ptr, align 8
  %__last.addr = alloca ptr, align 8
  %__result.addr = alloca ptr, align 8
  store ptr %__first, ptr %__first.addr, align 8
  store ptr %__last, ptr %__last.addr, align 8
  store ptr %__result, ptr %__result.addr, align 8
  %0 = load ptr, ptr %__first.addr, align 8
  %1 = load ptr, ptr %__last.addr, align 8
  %2 = load ptr, ptr %__result.addr, align 8
  %call = call noundef ptr @_ZSt14__copy_move_a2ILb0EPPN4cvc58internal4expr9NodeValueES5_ET1_T0_S7_S6_(ptr noundef %0, ptr noundef %1, ptr noundef %2)
  ret ptr %call
}

; Function Attrs: mustprogress nounwind uwtable
define linkonce_odr noundef ptr @_ZSt12__niter_baseIPPN4cvc58internal4expr9NodeValueEET_S6_(ptr noundef %__it) #5 comdat {
entry:
  %__it.addr = alloca ptr, align 8
  store ptr %__it, ptr %__it.addr, align 8
  %0 = load ptr, ptr %__it.addr, align 8
  ret ptr %0
}

; Function Attrs: mustprogress uwtable
define linkonce_odr noundef ptr @_ZSt13__copy_move_aILb0EPPN4cvc58internal4expr9NodeValueES5_ET1_T0_S7_S6_(ptr noundef %__first, ptr noundef %__last, ptr noundef %__result) #4 comdat {
entry:
  %__first.addr = alloca ptr, align 8
  %__last.addr = alloca ptr, align 8
  %__result.addr = alloca ptr, align 8
  store ptr %__first, ptr %__first.addr, align 8
  store ptr %__last, ptr %__last.addr, align 8
  store ptr %__result, ptr %__result.addr, align 8
  %0 = load ptr, ptr %__first.addr, align 8
  %call = call noundef ptr @_ZSt12__niter_baseIPPN4cvc58internal4expr9NodeValueEET_S6_(ptr noundef %0) #3
  %1 = load ptr, ptr %__last.addr, align 8
  %call1 = call noundef ptr @_ZSt12__niter_baseIPPN4cvc58internal4expr9NodeValueEET_S6_(ptr noundef %1) #3
  %2 = load ptr, ptr %__result.addr, align 8
  %call2 = call noundef ptr @_ZSt12__niter_baseIPPN4cvc58internal4expr9NodeValueEET_S6_(ptr noundef %2) #3
  %call3 = call noundef ptr @_ZSt14__copy_move_a1ILb0EPPN4cvc58internal4expr9NodeValueES5_ET1_T0_S7_S6_(ptr noundef %call, ptr noundef %call1, ptr noundef %call2)
  %call4 = call noundef ptr @_ZSt12__niter_wrapIPPN4cvc58internal4expr9NodeValueEET_RKS6_S6_(ptr noundef nonnull align 8 dereferenceable(8) %__result.addr, ptr noundef %call3)
  ret ptr %call4
}

; Function Attrs: mustprogress nounwind uwtable
define linkonce_odr noundef ptr @_ZSt12__miter_baseIPPN4cvc58internal4expr9NodeValueEET_S6_(ptr noundef %__it) #5 comdat {
entry:
  %__it.addr = alloca ptr, align 8
  store ptr %__it, ptr %__it.addr, align 8
  %0 = load ptr, ptr %__it.addr, align 8
  ret ptr %0
}

; Function Attrs: mustprogress uwtable
define linkonce_odr hidden void @_ZN4cvc58internal4expr9NodeValue3incEv(ptr noundef nonnull align 8 dereferenceable(16) %this) #4 comdat align 2 {
entry:
  %this.addr = alloca ptr, align 8
  store ptr %this, ptr %this.addr, align 8
  %this1 = load ptr, ptr %this.addr, align 8
  %bf.load = load i64, ptr %this1, align 8
  %bf.lshr = lshr i64 %bf.load, 40
  %bf.clear = and i64 %bf.lshr, 1048575
  %bf.cast = trunc i64 %bf.clear to i32
  %cmp = icmp ult i32 %bf.cast, 1048574
  br i1 %cmp, label %if.then, label %if.else

if.then:                                          ; preds = %entry
  %bf.load2 = load i64, ptr %this1, align 8
  %bf.lshr3 = lshr i64 %bf.load2, 40
  %bf.clear4 = and i64 %bf.lshr3, 1048575
  %bf.cast5 = trunc i64 %bf.clear4 to i32
  %inc = add i32 %bf.cast5, 1
  %0 = zext i32 %inc to i64
  %bf.load6 = load i64, ptr %this1, align 8
  %bf.value = and i64 %0, 1048575
  %bf.shl = shl i64 %bf.value, 40
  %bf.clear7 = and i64 %bf.load6, -1152920405095219201
  %bf.set = or i64 %bf.clear7, %bf.shl
  store i64 %bf.set, ptr %this1, align 8
  br label %if.end25

if.else:                                          ; preds = %entry
  %bf.load8 = load i64, ptr %this1, align 8
  %bf.lshr9 = lshr i64 %bf.load8, 40
  %bf.clear10 = and i64 %bf.lshr9, 1048575
  %bf.cast11 = trunc i64 %bf.clear10 to i32
  %cmp12 = icmp eq i32 %bf.cast11, 1048574
  br i1 %cmp12, label %if.then13, label %if.end

if.then13:                                        ; preds = %if.else
  %bf.load14 = load i64, ptr %this1, align 8
  %bf.lshr15 = lshr i64 %bf.load14, 40
  %bf.clear16 = and i64 %bf.lshr15, 1048575
  %bf.cast17 = trunc i64 %bf.clear16 to i32
  %inc18 = add i32 %bf.cast17, 1
  %1 = zext i32 %inc18 to i64
  %bf.load19 = load i64, ptr %this1, align 8
  %bf.value20 = and i64 %1, 1048575
  %bf.shl21 = shl i64 %bf.value20, 40
  %bf.clear22 = and i64 %bf.load19, -1152920405095219201
  %bf.set23 = or i64 %bf.clear22, %bf.shl21
  store i64 %bf.set23, ptr %this1, align 8
  call void @_ZN4cvc58internal4expr9NodeValue20markRefCountMaxedOutEv(ptr noundef nonnull align 8 dereferenceable(16) %this1)
  br label %if.end

if.end:                                           ; preds = %if.then13, %if.else
  br label %if.end25

if.end25:                                         ; preds = %if.end, %if.then
  ret void
}

; Function Attrs: mustprogress uwtable
define linkonce_odr noundef ptr @_ZSt4copyIPPN4cvc58internal4expr9NodeValueES5_ET0_T_S7_S6_(ptr noundef %__first, ptr noundef %__last, ptr noundef %__result) #4 comdat {
entry:
  %__first.addr = alloca ptr, align 8
  %__last.addr = alloca ptr, align 8
  %__result.addr = alloca ptr, align 8
  store ptr %__first, ptr %__first.addr, align 8
  store ptr %__last, ptr %__last.addr, align 8
  store ptr %__result, ptr %__result.addr, align 8
  %0 = load ptr, ptr %__first.addr, align 8
  %call = call noundef ptr @_ZSt12__miter_baseIPPN4cvc58internal4expr9NodeValueEET_S6_(ptr noundef %0)
  %1 = load ptr, ptr %__last.addr, align 8
  %call1 = call noundef ptr @_ZSt12__miter_baseIPPN4cvc58internal4expr9NodeValueEET_S6_(ptr noundef %1)
  %2 = load ptr, ptr %__result.addr, align 8
  %call2 = call noundef ptr @_ZSt13__copy_move_aILb0EPPN4cvc58internal4expr9NodeValueES5_ET1_T0_S7_S6_(ptr noundef %call, ptr noundef %call1, ptr noundef %2)
  ret ptr %call2
}

; Function Attrs: mustprogress nounwind uwtable
define linkonce_odr hidden noundef ptr @_ZN4cvc58internal4expr9NodeValue6nv_endEv(ptr noundef nonnull align 8 dereferenceable(16) %this) #5 comdat align 2 {
entry:
  %this.addr = alloca ptr, align 8
  store ptr %this, ptr %this.addr, align 8
  %this1 = load ptr, ptr %this.addr, align 8
  %d_children = getelementptr inbounds %"class.cvc5::internal::expr::NodeValue", ptr %this1, i32 0, i32 3
  %arraydecay = getelementptr inbounds [0 x ptr], ptr %d_children, i64 0, i64 0
  %d_nchildren = getelementptr inbounds %"class.cvc5::internal::expr::NodeValue", ptr %this1, i32 0, i32 2
  %bf.load = load i32, ptr %d_nchildren, align 4
  %bf.clear = and i32 %bf.load, 67108863
  %idx.ext = sext i32 %bf.clear to i64
  %add.ptr = getelementptr inbounds ptr, ptr %arraydecay, i64 %idx.ext
  ret ptr %add.ptr
}

; Function Attrs: mustprogress nounwind uwtable
define linkonce_odr hidden noundef ptr @_ZN4cvc58internal4expr9NodeValue8nv_beginEv(ptr noundef nonnull align 8 dereferenceable(16) %this) #5 comdat align 2 {
entry:
  %this.addr = alloca ptr, align 8
  store ptr %this, ptr %this.addr, align 8
  %this1 = load ptr, ptr %this.addr, align 8
  %d_children = getelementptr inbounds %"class.cvc5::internal::expr::NodeValue", ptr %this1, i32 0, i32 3
  %arraydecay = getelementptr inbounds [0 x ptr], ptr %d_children, i64 0, i64 0
  ret ptr %arraydecay
}

; Function Attrs: mustprogress nounwind uwtable
define hidden void @_ZN4cvc58internal11NodeBuilder7setUsedEv(ptr noundef nonnull align 8 dereferenceable(116) %this) #5 align 2 {
entry:
  %this.addr = alloca ptr, align 8
  store ptr %this, ptr %this.addr, align 8
  %this1 = load ptr, ptr %this.addr, align 8
  %d_nv = getelementptr inbounds %"class.cvc5::internal::NodeBuilder", ptr %this1, i32 0, i32 2
  store ptr null, ptr %d_nv, align 8
  ret void
}

; Function Attrs: mustprogress nounwind uwtable
define hidden noundef zeroext i1 @_ZNK4cvc58internal11NodeBuilder6isUsedEv(ptr noundef nonnull align 8 dereferenceable(116) %this) #5 align 2 {
entry:
  %this.addr = alloca ptr, align 8
  store ptr %this, ptr %this.addr, align 8
  %this1 = load ptr, ptr %this.addr, align 8
  %d_nv = getelementptr inbounds %"class.cvc5::internal::NodeBuilder", ptr %this1, i32 0, i32 2
  %0 = load ptr, ptr %d_nv, align 8
  %cmp = icmp eq ptr %0, null
  ret i1 %cmp
}

; Function Attrs: mustprogress uwtable
define hidden void @_ZN4cvc58internal11NodeBuilder12internalCopyERKS1_(ptr noundef nonnull align 8 dereferenceable(116) %this, ptr noundef nonnull align 8 dereferenceable(116) %nb) #4 align 2 {
entry:
  %this.addr = alloca ptr, align 8
  %nb.addr = alloca ptr, align 8
  %realloced = alloca i8, align 1
  %i = alloca ptr, align 8
  store ptr %this, ptr %this.addr, align 8
  store ptr %nb, ptr %nb.addr, align 8
  %this1 = load ptr, ptr %this.addr, align 8
  %0 = load ptr, ptr %nb.addr, align 8
  %call = call noundef zeroext i1 @_ZNK4cvc58internal11NodeBuilder6isUsedEv(ptr noundef nonnull align 8 dereferenceable(116) %0)
  br i1 %call, label %if.then, label %if.end

if.then:                                          ; preds = %entry
  call void @_ZN4cvc58internal11NodeBuilder7setUsedEv(ptr noundef nonnull align 8 dereferenceable(116) %this1)
  br label %for.end

if.end:                                           ; preds = %entry
  store i8 0, ptr %realloced, align 1
  %1 = load ptr, ptr %nb.addr, align 8
  %d_nvMaxChildren = getelementptr inbounds %"class.cvc5::internal::NodeBuilder", ptr %1, i32 0, i32 4
  %2 = load i32, ptr %d_nvMaxChildren, align 8
  %d_nvMaxChildren2 = getelementptr inbounds %"class.cvc5::internal::NodeBuilder", ptr %this1, i32 0, i32 4
  %3 = load i32, ptr %d_nvMaxChildren2, align 8
  %cmp = icmp ugt i32 %2, %3
  br i1 %cmp, label %if.then3, label %if.end5

if.then3:                                         ; preds = %if.end
  store i8 1, ptr %realloced, align 1
  %4 = load ptr, ptr %nb.addr, align 8
  %d_nvMaxChildren4 = getelementptr inbounds %"class.cvc5::internal::NodeBuilder", ptr %4, i32 0, i32 4
  %5 = load i32, ptr %d_nvMaxChildren4, align 8
  %conv = zext i32 %5 to i64
  call void @_ZN4cvc58internal11NodeBuilder7reallocEm(ptr noundef nonnull align 8 dereferenceable(116) %this1, i64 noundef %conv)
  br label %if.end5

if.end5:                                          ; preds = %if.then3, %if.end
  %6 = load ptr, ptr %nb.addr, align 8
  %d_nv = getelementptr inbounds %"class.cvc5::internal::NodeBuilder", ptr %6, i32 0, i32 2
  %7 = load ptr, ptr %d_nv, align 8
  %call6 = call noundef ptr @_ZN4cvc58internal4expr9NodeValue8nv_beginEv(ptr noundef nonnull align 8 dereferenceable(16) %7)
  %8 = load ptr, ptr %nb.addr, align 8
  %d_nv7 = getelementptr inbounds %"class.cvc5::internal::NodeBuilder", ptr %8, i32 0, i32 2
  %9 = load ptr, ptr %d_nv7, align 8
  %call8 = call noundef ptr @_ZN4cvc58internal4expr9NodeValue6nv_endEv(ptr noundef nonnull align 8 dereferenceable(16) %9)
  %d_nv9 = getelementptr inbounds %"class.cvc5::internal::NodeBuilder", ptr %this1, i32 0, i32 2
  %10 = load ptr, ptr %d_nv9, align 8
  %call10 = call noundef ptr @_ZN4cvc58internal4expr9NodeValue8nv_beginEv(ptr noundef nonnull align 8 dereferenceable(16) %10)
  %call11 = call noundef ptr @_ZSt4copyIPPN4cvc58internal4expr9NodeValueES5_ET0_T_S7_S6_(ptr noundef %call6, ptr noundef %call8, ptr noundef %call10)
  %11 = load ptr, ptr %nb.addr, align 8
  %d_nv12 = getelementptr inbounds %"class.cvc5::internal::NodeBuilder", ptr %11, i32 0, i32 2
  %12 = load ptr, ptr %d_nv12, align 8
  %d_nchildren = getelementptr inbounds %"class.cvc5::internal::expr::NodeValue", ptr %12, i32 0, i32 2
  %bf.load = load i32, ptr %d_nchildren, align 4
  %bf.clear = and i32 %bf.load, 67108863
  %d_nv13 = getelementptr inbounds %"class.cvc5::internal::NodeBuilder", ptr %this1, i32 0, i32 2
  %13 = load ptr, ptr %d_nv13, align 8
  %d_nchildren14 = getelementptr inbounds %"class.cvc5::internal::expr::NodeValue", ptr %13, i32 0, i32 2
  %bf.load15 = load i32, ptr %d_nchildren14, align 4
  %bf.value = and i32 %bf.clear, 67108863
  %bf.clear16 = and i32 %bf.load15, -67108864
  %bf.set = or i32 %bf.clear16, %bf.value
  store i32 %bf.set, ptr %d_nchildren14, align 4
  %d_nv17 = getelementptr inbounds %"class.cvc5::internal::NodeBuilder", ptr %this1, i32 0, i32 2
  %14 = load ptr, ptr %d_nv17, align 8
  %call18 = call noundef ptr @_ZN4cvc58internal4expr9NodeValue8nv_beginEv(ptr noundef nonnull align 8 dereferenceable(16) %14)
  store ptr %call18, ptr %i, align 8
  br label %for.cond

for.cond:                                         ; preds = %for.inc, %if.end5
  %15 = load ptr, ptr %i, align 8
  %d_nv19 = getelementptr inbounds %"class.cvc5::internal::NodeBuilder", ptr %this1, i32 0, i32 2
  %16 = load ptr, ptr %d_nv19, align 8
  %call20 = call noundef ptr @_ZN4cvc58internal4expr9NodeValue6nv_endEv(ptr noundef nonnull align 8 dereferenceable(16) %16)
  %cmp21 = icmp ne ptr %15, %call20
  br i1 %cmp21, label %for.body, label %for.end

for.body:                                         ; preds = %for.cond
  %17 = load ptr, ptr %i, align 8
  %18 = load ptr, ptr %17, align 8
  call void @_ZN4cvc58internal4expr9NodeValue3incEv(ptr noundef nonnull align 8 dereferenceable(16) %18)
  br label %for.inc

for.inc:                                          ; preds = %for.body
  %19 = load ptr, ptr %i, align 8
  %incdec.ptr = getelementptr inbounds ptr, ptr %19, i32 1
  store ptr %incdec.ptr, ptr %i, align 8
  br label %for.cond, !llvm.loop !4

for.end:                                          ; preds = %for.cond, %if.then
  ret void
}