; Function Attrs: mustprogress uwtable
define hidden void @_ZN4cvc58internal11NodeBuilder12internalCopyERKS1_(ptr noundef nonnull align 8 dereferenceable(116) %this, ptr nocapture noundef nonnull readonly align 8 dereferenceable(116) %nb) local_unnamed_addr #3 align 2 {
entry:
  %d_nv.i = getelementptr inbounds i8, ptr %nb, i64 96
  %0 = load ptr, ptr %d_nv.i, align 8
  %cmp.i = icmp eq ptr %0, null
  br i1 %cmp.i, label %if.then, label %if.end

if.then:                                          ; preds = %entry
  %d_nv.i8 = getelementptr inbounds i8, ptr %this, i64 96
  store ptr null, ptr %d_nv.i8, align 8
  br label %for.end

if.end:                                           ; preds = %entry
  %d_nvMaxChildren = getelementptr inbounds i8, ptr %nb, i64 112
  %1 = load i32, ptr %d_nvMaxChildren, align 8
  %d_nvMaxChildren2 = getelementptr inbounds i8, ptr %this, i64 112
  %2 = load i32, ptr %d_nvMaxChildren2, align 8
  %cmp = icmp ugt i32 %1, %2
  br i1 %cmp, label %if.then3, label %if.end5

if.then3:                                         ; preds = %if.end
  %conv = zext i32 %1 to i64
  tail call void @_ZN4cvc58internal11NodeBuilder7reallocEm(ptr noundef nonnull align 8 dereferenceable(116) %this, i64 noundef %conv)
  %.pre = load ptr, ptr %d_nv.i, align 8
  br label %if.end5

if.end5:                                          ; preds = %if.then3, %if.end
  %3 = phi ptr [ %.pre, %if.then3 ], [ %0, %if.end ]
  %d_nchildren.i = getelementptr inbounds i8, ptr %3, i64 12
  %bf.load.i = load i32, ptr %d_nchildren.i, align 4
  %bf.clear.i = and i32 %bf.load.i, 67108863
  %d_nv9 = getelementptr inbounds i8, ptr %this, i64 96
  %tobool.not.i.i.i.i.i = icmp eq i32 %bf.clear.i, 0
  br i1 %tobool.not.i.i.i.i.i, label %_ZSt4copyIPPN4cvc58internal4expr9NodeValueES5_ET0_T_S7_S6_.exit, label %if.then.i.i.i.i.i

if.then.i.i.i.i.i:                                ; preds = %if.end5
  %d_children.i = getelementptr inbounds i8, ptr %3, i64 16
  %4 = shl nuw nsw i32 %bf.clear.i, 3
  %add.ptr.i.idx = zext nneg i32 %4 to i64
  %5 = load ptr, ptr %d_nv9, align 8
  %d_children.i10 = getelementptr inbounds i8, ptr %5, i64 16
  tail call void @llvm.memmove.p0.p0.i64(ptr nonnull align 8 %d_children.i10, ptr nonnull align 8 %d_children.i, i64 %add.ptr.i.idx, i1 false)
  %.pre29 = load ptr, ptr %d_nv.i, align 8
  %d_nchildren.phi.trans.insert = getelementptr inbounds i8, ptr %.pre29, i64 12
  %bf.load.pre = load i32, ptr %d_nchildren.phi.trans.insert, align 4
  %.pre31 = and i32 %bf.load.pre, 67108863
  br label %_ZSt4copyIPPN4cvc58internal4expr9NodeValueES5_ET0_T_S7_S6_.exit

_ZSt4copyIPPN4cvc58internal4expr9NodeValueES5_ET0_T_S7_S6_.exit: ; preds = %if.end5, %if.then.i.i.i.i.i
  %bf.clear.pre-phi = phi i32 [ 0, %if.end5 ], [ %.pre31, %if.then.i.i.i.i.i ]
  %6 = load ptr, ptr %d_nv9, align 8
  %d_nchildren14 = getelementptr inbounds i8, ptr %6, i64 12
  %bf.load15 = load i32, ptr %d_nchildren14, align 4
  %bf.clear16 = and i32 %bf.load15, -67108864
  %bf.set = or disjoint i32 %bf.clear16, %bf.clear.pre-phi
  store i32 %bf.set, ptr %d_nchildren14, align 4
  %7 = load ptr, ptr %d_nv9, align 8
  %d_nchildren.i1322 = getelementptr inbounds i8, ptr %7, i64 12
  %bf.load.i1423 = load i32, ptr %d_nchildren.i1322, align 4
  %bf.clear.i1524 = and i32 %bf.load.i1423, 67108863
  %cmp21.not27 = icmp eq i32 %bf.clear.i1524, 0
  br i1 %cmp21.not27, label %for.end, label %for.body.preheader

for.body.preheader:                               ; preds = %_ZSt4copyIPPN4cvc58internal4expr9NodeValueES5_ET0_T_S7_S6_.exit
  %d_children.i11 = getelementptr inbounds i8, ptr %7, i64 16
  br label %for.body

for.body:                                         ; preds = %for.body.preheader, %_ZN4cvc58internal4expr9NodeValue3incEv.exit
  %i.028 = phi ptr [ %incdec.ptr, %_ZN4cvc58internal4expr9NodeValue3incEv.exit ], [ %d_children.i11, %for.body.preheader ]
  %8 = load ptr, ptr %i.028, align 8
  %bf.load.i18 = load i64, ptr %8, align 8
  %bf.lshr.i = lshr i64 %bf.load.i18, 40
  %9 = trunc i64 %bf.lshr.i to i32
  %bf.cast.i = and i32 %9, 1048575
  %cmp.i19 = icmp ult i32 %bf.cast.i, 1048574
  br i1 %cmp.i19, label %if.then.i, label %if.else.i

if.then.i:                                        ; preds = %for.body
  %bf.value.i = add i64 %bf.load.i18, 1099511627776
  %bf.shl.i = and i64 %bf.value.i, 1152920405095219200
  %bf.clear7.i = and i64 %bf.load.i18, -1152920405095219201
  %bf.set.i = or disjoint i64 %bf.shl.i, %bf.clear7.i
  store i64 %bf.set.i, ptr %8, align 8
  br label %_ZN4cvc58internal4expr9NodeValue3incEv.exit

if.else.i:                                        ; preds = %for.body
  %cmp12.i = icmp eq i32 %bf.cast.i, 1048574
  br i1 %cmp12.i, label %if.then13.i, label %_ZN4cvc58internal4expr9NodeValue3incEv.exit

if.then13.i:                                      ; preds = %if.else.i
  %bf.set23.i = or i64 %bf.load.i18, 1152920405095219200
  store i64 %bf.set23.i, ptr %8, align 8
  tail call void @_ZN4cvc58internal4expr9NodeValue20markRefCountMaxedOutEv(ptr noundef nonnull align 8 dereferenceable(16) %8)
  br label %_ZN4cvc58internal4expr9NodeValue3incEv.exit

_ZN4cvc58internal4expr9NodeValue3incEv.exit:      ; preds = %if.then.i, %if.else.i, %if.then13.i
  %incdec.ptr = getelementptr inbounds i8, ptr %i.028, i64 8
  %10 = load ptr, ptr %d_nv9, align 8
  %d_children.i12 = getelementptr inbounds i8, ptr %10, i64 16
  %d_nchildren.i13 = getelementptr inbounds i8, ptr %10, i64 12
  %bf.load.i14 = load i32, ptr %d_nchildren.i13, align 4
  %bf.clear.i15 = and i32 %bf.load.i14, 67108863
  %idx.ext.i16 = zext nneg i32 %bf.clear.i15 to i64
  %add.ptr.i17 = getelementptr inbounds ptr, ptr %d_children.i12, i64 %idx.ext.i16
  %cmp21.not = icmp eq ptr %incdec.ptr, %add.ptr.i17
  br i1 %cmp21.not, label %for.end, label %for.body, !llvm.loop !4

for.end:                                          ; preds = %_ZN4cvc58internal4expr9NodeValue3incEv.exit, %_ZSt4copyIPPN4cvc58internal4expr9NodeValueES5_ET0_T_S7_S6_.exit, %if.then
  ret void
}